; Function Attrs: nounwind uwtable
define dso_local i32 @jobacct_storage_g_job_suspend(ptr noundef %0, ptr noundef %1) local_unnamed_addr #0 {
  %3 = load i32, ptr @plugin_inited, align 4
  %4 = icmp eq i32 %3, 1
  br i1 %4, label %11, label %5

5:                                                ; preds = %2
  %6 = load i16, ptr getelementptr inbounds nuw (i8, ptr @slurm_conf, i64 16), align 8
  %7 = and i16 %6, 32
  %.not = icmp eq i16 %7, 0
  br i1 %.not, label %8, label %11

8:                                                ; preds = %5
  %9 = load ptr, ptr getelementptr inbounds nuw (i8, ptr @ops, i64 536), align 8
  %10 = tail call i32 %9(ptr noundef %0, ptr noundef %1) #8
  br label %11

11:                                               ; preds = %5, %2, %8
  %.0 = phi i32 [ %10, %8 ], [ 0, %2 ], [ 0, %5 ]
  ret i32 %.0
}